target datalayout = "e-m:e-p270:32:32-p271:32:32-p272:64:64-i64:64-i128:128-f80:128-n8:16:32:64-S128"
target triple = "x86_64-pc-linux-gnu"

%struct.AVCodecContext = type { ptr, i32, i32, ptr, i32, i32, ptr, ptr, ptr, i64, i32, i32, ptr, i32, %struct.AVRational, %struct.AVRational, %struct.AVRational, i32, i32, i32, i32, i32, %struct.AVRational, i32, i32, i32, i32, i32, i32, i32, i32, i32, i32, i32, ptr, ptr, i32, float, float, float, float, float, float, float, float, float, i32, i32, i32, i32, i32, i32, i32, i32, i32, i32, i32, i32, ptr, ptr, ptr, i32, i32, i32, i32, i32, i32, i32, i32, i32, i32, %struct.AVChannelLayout, i32, i32, i32, i32, i32, i32, i32, i32, ptr, i32, i32, i32, float, float, i32, i32, i32, i32, i32, ptr, i64, i64, float, float, i32, i32, ptr, ptr, i32, i32, i32, i32, i32, ptr, ptr, ptr, ptr, i32, i32, [8 x i64], i32, i32, i32, i32, i32, i32, i32, ptr, ptr, i32, i32, i32, i32, i32, i32, i32, i32, i32, i32, ptr, ptr, i32, i32, ptr, ptr, ptr, ptr, i32, i32, i64, i32, i32, i64, ptr, i64, ptr, i32, ptr, i32 }
%struct.AVRational = type { i32, i32 }
%struct.AVChannelLayout = type { i32, i32, %union.anon.1, ptr }
%union.anon.1 = type { i64 }
%struct.VAAPIEncodeContext = type { %struct.FFHWBaseEncodeContext, ptr, i32, i32, i32, i32, i32, i32, ptr, ptr, i32, i32, i32, i32, i32, i32, [4 x %struct._VAConfigAttrib], i32, i32, i32, ptr, ptr, [4 x i32], [4 x ptr], [4 x i64], i32, %struct._VAEncMiscParameterRateControl, %struct._VAEncMiscParameterHRD, %struct._VAEncMiscParameterFrameRate, %struct._VAEncMiscParameterBufferMaxFrameSize, %struct._VAEncMiscParameterBufferQualityLevel, ptr, ptr, i32, i32, i32, i32, i32, i32, [20 x i32], [22 x i32], [21 x i32], [23 x i32], i32, i32, ptr, i32, i32 }
%struct.FFHWBaseEncodeContext = type { ptr, ptr, ptr, i32, i32, i32, i32, i32, i32, ptr, ptr, ptr, ptr, ptr, ptr, ptr, ptr, [2 x ptr], i32, i64, i64, i64, i64, i64, i64, i64, [112 x i64], i32, i32, i32, i32, i32, i32, i32, i32, i32, i32, i32, i32, i32, i32, i32, i32, ptr, i32, ptr, i32, ptr }
%struct._VAConfigAttrib = type { i32, i32 }
%struct._VAEncMiscParameterRateControl = type { i32, i32, i32, i32, i32, i32, %union.anon.2, i32, i32, i32, i32, [4 x i32] }
%union.anon.2 = type { %struct.anon }
%struct.anon = type { i32 }
%struct._VAEncMiscParameterHRD = type { i32, i32, [4 x i32] }
%struct._VAEncMiscParameterFrameRate = type { i32, %union.anon.3, [4 x i32] }
%union.anon.3 = type { %struct.anon.4 }
%struct.anon.4 = type { i32 }
%struct._VAEncMiscParameterBufferMaxFrameSize = type { i32, i32, [4 x i32] }
%struct._VAEncMiscParameterBufferQualityLevel = type { i32, [4 x i32] }
%struct.VAAPIEncodeMPEG2Context = type { %struct.VAAPIEncodeContext, i32, i32, i32, i32, i32, i32, i32, %struct.AVRational, i32, i32, i64, %struct.MPEG2RawSequenceHeader, %struct.MPEG2RawExtensionData, %struct.MPEG2RawExtensionData, %struct.MPEG2RawGroupOfPicturesHeader, %struct.MPEG2RawPictureHeader, %struct.MPEG2RawExtensionData, ptr, %struct.CodedBitstreamFragment }
%struct.MPEG2RawSequenceHeader = type { i8, i16, i16, i8, i8, i32, i16, i8, i8, [64 x i8], i8, [64 x i8] }
%struct.MPEG2RawGroupOfPicturesHeader = type { i8, i32, i8, i8 }
%struct.MPEG2RawPictureHeader = type { i8, i16, i8, i16, i8, i8, i8, i8, %struct.MPEG2RawExtraInformation }
%struct.MPEG2RawExtraInformation = type { ptr, ptr, i64 }
%struct.MPEG2RawExtensionData = type { i8, i8, %union.anon.5 }
%union.anon.5 = type { %struct.MPEG2RawSequenceExtension, [248 x i8] }
%struct.MPEG2RawSequenceExtension = type { i8, i8, i8, i8, i8, i16, i8, i8, i8, i8 }
%struct.CodedBitstreamFragment = type { ptr, i64, i64, ptr, i32, i32, ptr }

@.str.56 = private unnamed_addr constant [26 x i8] c"Unknown MPEG-2 level %d.\0A\00", align 1
@.str.57 = private unnamed_addr constant [68 x i8] c"MPEG-2 does not support picture height or width divisible by 4096.\0A\00", align 1

; Function Attrs: cold nounwind optsize uwtable
define internal i32 @vaapi_encode_mpeg2_init(ptr noundef %0) #0 {
  %2 = alloca i32, align 4
  %3 = alloca ptr, align 8
  %4 = alloca ptr, align 8
  %5 = alloca ptr, align 8
  %6 = alloca i32, align 4
  store ptr %0, ptr %3, align 8, !tbaa !4
  call void @llvm.lifetime.start.p0(i64 8, ptr %4) #12
  %7 = load ptr, ptr %3, align 8, !tbaa !4
  %8 = getelementptr inbounds nuw %struct.AVCodecContext, ptr %7, i32 0, i32 6
  %9 = load ptr, ptr %8, align 8, !tbaa !9
  store ptr %9, ptr %4, align 8, !tbaa !29
  call void @llvm.lifetime.start.p0(i64 8, ptr %5) #12
  %10 = load ptr, ptr %3, align 8, !tbaa !4
  %11 = getelementptr inbounds nuw %struct.AVCodecContext, ptr %10, i32 0, i32 6
  %12 = load ptr, ptr %11, align 8, !tbaa !9
  store ptr %12, ptr %5, align 8, !tbaa !31
  %13 = load ptr, ptr %4, align 8, !tbaa !29
  %14 = getelementptr inbounds nuw %struct.VAAPIEncodeContext, ptr %13, i32 0, i32 1
  store ptr @vaapi_encode_type_mpeg2, ptr %14, align 8, !tbaa !33
  %15 = load ptr, ptr %3, align 8, !tbaa !4
  %16 = getelementptr inbounds nuw %struct.AVCodecContext, ptr %15, i32 0, i32 121
  %17 = load i32, ptr %16, align 8, !tbaa !53
  %18 = icmp eq i32 %17, -99
  br i1 %18, label %19, label %25

19:                                               ; preds = %1
  %20 = load ptr, ptr %5, align 8, !tbaa !31
  %21 = getelementptr inbounds nuw %struct.VAAPIEncodeMPEG2Context, ptr %20, i32 0, i32 1
  %22 = load i32, ptr %21, align 8, !tbaa !54
  %23 = load ptr, ptr %3, align 8, !tbaa !4
  %24 = getelementptr inbounds nuw %struct.AVCodecContext, ptr %23, i32 0, i32 121
  store i32 %22, ptr %24, align 8, !tbaa !53
  br label %25

25:                                               ; preds = %19, %1
  %26 = load ptr, ptr %3, align 8, !tbaa !4
  %27 = getelementptr inbounds nuw %struct.AVCodecContext, ptr %26, i32 0, i32 122
  %28 = load i32, ptr %27, align 4, !tbaa !65
  %29 = icmp eq i32 %28, -99
  br i1 %29, label %30, label %36

30:                                               ; preds = %25
  %31 = load ptr, ptr %5, align 8, !tbaa !31
  %32 = getelementptr inbounds nuw %struct.VAAPIEncodeMPEG2Context, ptr %31, i32 0, i32 2
  %33 = load i32, ptr %32, align 4, !tbaa !66
  %34 = load ptr, ptr %3, align 8, !tbaa !4
  %35 = getelementptr inbounds nuw %struct.AVCodecContext, ptr %34, i32 0, i32 122
  store i32 %33, ptr %35, align 4, !tbaa !65
  br label %36

36:                                               ; preds = %30, %25
  %37 = load ptr, ptr %3, align 8, !tbaa !4
  %38 = getelementptr inbounds nuw %struct.AVCodecContext, ptr %37, i32 0, i32 122
  %39 = load i32, ptr %38, align 4, !tbaa !65
  switch i32 %39, label %41 [
    i32 4, label %40
    i32 6, label %40
    i32 8, label %40
    i32 10, label %40
  ]

40:                                               ; preds = %36, %36, %36, %36
  br label %46

41:                                               ; preds = %36
  %42 = load ptr, ptr %3, align 8, !tbaa !4
  %43 = load ptr, ptr %3, align 8, !tbaa !4
  %44 = getelementptr inbounds nuw %struct.AVCodecContext, ptr %43, i32 0, i32 122
  %45 = load i32, ptr %44, align 4, !tbaa !65
  call void (ptr, i32, ptr, ...) @av_log(ptr noundef %42, i32 noundef 16, ptr noundef @.str.56, i32 noundef %45)
  store i32 -22, ptr %2, align 4
  store i32 1, ptr %6, align 4
  br label %65

46:                                               ; preds = %40
  %47 = load ptr, ptr %3, align 8, !tbaa !4
  %48 = getelementptr inbounds nuw %struct.AVCodecContext, ptr %47, i32 0, i32 19
  %49 = load i32, ptr %48, align 4, !tbaa !67
  %50 = srem i32 %49, 4096
  %51 = icmp eq i32 %50, 0
  br i1 %51, label %58, label %52

52:                                               ; preds = %46
  %53 = load ptr, ptr %3, align 8, !tbaa !4
  %54 = getelementptr inbounds nuw %struct.AVCodecContext, ptr %53, i32 0, i32 18
  %55 = load i32, ptr %54, align 8, !tbaa !68
  %56 = srem i32 %55, 4096
  %57 = icmp eq i32 %56, 0
  br i1 %57, label %58, label %60

58:                                               ; preds = %52, %46
  %59 = load ptr, ptr %3, align 8, !tbaa !4
  call void (ptr, i32, ptr, ...) @av_log(ptr noundef %59, i32 noundef 16, ptr noundef @.str.57)
  store i32 -22, ptr %2, align 4
  store i32 1, ptr %6, align 4
  br label %65

60:                                               ; preds = %52
  %61 = load ptr, ptr %4, align 8, !tbaa !29
  %62 = getelementptr inbounds nuw %struct.VAAPIEncodeContext, ptr %61, i32 0, i32 7
  store i32 3, ptr %62, align 4, !tbaa !69
  %63 = load ptr, ptr %3, align 8, !tbaa !4
  %64 = call i32 @ff_vaapi_encode_init(ptr noundef %63)
  store i32 %64, ptr %2, align 4
  store i32 1, ptr %6, align 4
  br label %65

65:                                               ; preds = %60, %58, %41
  call void @llvm.lifetime.end.p0(i64 8, ptr %5) #12
  call void @llvm.lifetime.end.p0(i64 8, ptr %4) #12
  %66 = load i32, ptr %2, align 4
  ret i32 %66
}