; Function Attrs: cold nounwind optsize uwtable
define internal i32 @vaapi_encode_mpeg2_init(ptr noundef %0) #0 {
  %2 = getelementptr inbounds nuw i8, ptr %0, i64 32
  %3 = load ptr, ptr %2, align 8, !tbaa !4
  %4 = getelementptr inbounds nuw i8, ptr %3, i64 1192
  store ptr @vaapi_encode_type_mpeg2, ptr %4, align 8, !tbaa !27
  %5 = getelementptr inbounds nuw i8, ptr %0, i64 688
  %6 = load i32, ptr %5, align 8, !tbaa !47
  %7 = icmp eq i32 %6, -99
  br i1 %7, label %8, label %11

8:                                                ; preds = %1
  %9 = getelementptr inbounds nuw i8, ptr %3, i64 1976
  %10 = load i32, ptr %9, align 8, !tbaa !48
  store i32 %10, ptr %5, align 8, !tbaa !47
  br label %11

11:                                               ; preds = %8, %1
  %12 = getelementptr inbounds nuw i8, ptr %0, i64 692
  %13 = load i32, ptr %12, align 4, !tbaa !59
  %14 = icmp eq i32 %13, -99
  br i1 %14, label %15, label %18

15:                                               ; preds = %11
  %16 = getelementptr inbounds nuw i8, ptr %3, i64 1980
  %17 = load i32, ptr %16, align 4, !tbaa !60
  store i32 %17, ptr %12, align 4, !tbaa !59
  br label %18

18:                                               ; preds = %15, %11
  %19 = phi i32 [ %17, %15 ], [ %13, %11 ]
  switch i32 %19, label %20 [
    i32 4, label %21
    i32 6, label %21
    i32 8, label %21
    i32 10, label %21
  ]

20:                                               ; preds = %18
  tail call void (ptr, i32, ptr, ...) @av_log(ptr noundef nonnull %0, i32 noundef 16, ptr noundef nonnull @.str.56, i32 noundef %19) #10
  br label %35

21:                                               ; preds = %18, %18, %18, %18
  %22 = getelementptr inbounds nuw i8, ptr %0, i64 116
  %23 = load i32, ptr %22, align 4, !tbaa !61
  %24 = and i32 %23, 4095
  %25 = icmp eq i32 %24, 0
  br i1 %25, label %31, label %26

26:                                               ; preds = %21
  %27 = getelementptr inbounds nuw i8, ptr %0, i64 112
  %28 = load i32, ptr %27, align 8, !tbaa !62
  %29 = and i32 %28, 4095
  %30 = icmp eq i32 %29, 0
  br i1 %30, label %31, label %32

31:                                               ; preds = %26, %21
  tail call void (ptr, i32, ptr, ...) @av_log(ptr noundef nonnull %0, i32 noundef 16, ptr noundef nonnull @.str.57) #10
  br label %35

32:                                               ; preds = %26
  %33 = getelementptr inbounds nuw i8, ptr %3, i64 1220
  store i32 3, ptr %33, align 4, !tbaa !63
  %34 = tail call i32 @ff_vaapi_encode_init(ptr noundef nonnull %0) #10
  br label %35

35:                                               ; preds = %32, %31, %20
  %.0 = phi i32 [ -22, %20 ], [ -22, %31 ], [ %34, %32 ]
  ret i32 %.0
}